target datalayout = "e-m:e-p270:32:32-p271:32:32-p272:64:64-i64:64-i128:128-f80:128-n8:16:32:64-S128"
target triple = "x86_64-pc-linux-gnu"

%struct._zend_array = type { %struct._zend_refcounted_h, %union.anon.0, i32, %union.anon.1, i32, i32, i32, i32, i64, ptr }
%struct._zend_refcounted_h = type { i32, %union.anon }
%union.anon = type { i32 }
%union.anon.0 = type { i32 }
%union.anon.1 = type { ptr }
%struct._zend_executor_globals = type { %struct._zval_struct, %struct._zval_struct, [32 x ptr], ptr, ptr, %struct._zend_array, %struct._zend_array, ptr, i32, i8, %struct._zval_struct, i32, ptr, ptr, ptr, ptr, ptr, ptr, i64, ptr, ptr, i32, ptr, i32, i64, i32, i32, i32, i8, i8, %struct.zend_atomic_bool_s, %struct.zend_atomic_bool_s, ptr, i64, ptr, ptr, %struct._zend_array, %struct._zend_array, i32, i8, %struct._zval_struct, %struct._zval_struct, %struct._zend_stack, %struct._zend_stack, %struct._zend_stack, ptr, i32, i32, i64, ptr, ptr, ptr, %struct._zend_objects_store, %struct._zend_lazy_objects_store, ptr, ptr, ptr, [3 x %struct._zend_op], ptr, i8, i8, i64, i32, i32, ptr, [16 x %struct._HashTableIterator], ptr, %union._zend_function, %struct._zend_op, %struct._zend_array, i64, %struct.zend_get_gc_buffer, ptr, ptr, ptr, i64, i8, i32, ptr, ptr, i64, %struct._zend_call_stack, i64, i64, %struct._zend_strtod_state, [6 x ptr] }
%struct.zend_atomic_bool_s = type { i8 }
%struct._zval_struct = type { %union._zend_value, %union.anon.3, %union.anon.6 }
%union._zend_value = type { i64 }
%union.anon.3 = type { i32 }
%union.anon.6 = type { i32 }
%struct._zend_stack = type { i32, i32, i32, ptr }
%struct._zend_objects_store = type { ptr, i32, i32, i32 }
%struct._zend_lazy_objects_store = type { %struct._zend_array }
%struct._HashTableIterator = type { ptr, i32, i32 }
%union._zend_function = type { %struct._zend_op_array }
%struct._zend_op_array = type { i8, [3 x i8], i32, ptr, ptr, ptr, i32, i32, ptr, ptr, ptr, ptr, i32, ptr, i32, i32, i32, ptr, ptr, ptr, ptr, ptr, i32, i32, ptr, ptr, ptr, i32, i32, i32, i32, ptr, ptr, [6 x ptr] }
%struct._zend_op = type { ptr, %union._znode_op, %union._znode_op, %union._znode_op, i32, i32, i8, i8, i8, i8 }
%union._znode_op = type { i32 }
%struct.zend_get_gc_buffer = type { ptr, ptr, ptr }
%struct._zend_call_stack = type { ptr, i64 }
%struct._zend_strtod_state = type { [8 x ptr], ptr, ptr }
%struct._php_hash_ops = type { ptr, ptr, ptr, ptr, ptr, ptr, ptr, ptr, i64, i64, i64, i8 }
%struct._php_hashcontext_object = type { ptr, ptr, i64, ptr, %struct._zend_object }
%struct._zend_object = type { %struct._zend_refcounted_h, i32, i32, ptr, ptr, ptr, [1 x %struct._zval_struct] }
%struct._zend_execute_data = type { ptr, ptr, ptr, ptr, %struct._zval_struct, ptr, ptr, ptr, ptr }

@executor_globals = external global %struct._zend_executor_globals, align 8
@php_hashcontext_ce = dso_local global ptr null, align 8
@.str.6 = private unnamed_addr constant [43 x i8] c"must be a valid, non-finalized HashContext\00", align 1
@.str.7 = private unnamed_addr constant [5 x i8] c"Or|l\00", align 1
@.str.8 = private unnamed_addr constant [7 x i8] c"stream\00", align 1

; Function Attrs: inlinehint nounwind uwtable
define internal ptr @php_hashcontext_from_object(ptr noundef %0) #7 {
  %2 = alloca ptr, align 8
  store ptr %0, ptr %2, align 8, !tbaa !59
  %3 = load ptr, ptr %2, align 8, !tbaa !59
  %4 = getelementptr inbounds %struct._zend_object, ptr %3, i64 1
  %5 = getelementptr inbounds %struct._php_hashcontext_object, ptr %4, i64 -1
  ret ptr %5
}

; Function Attrs: nounwind uwtable
define hidden void @zif_hash_update_stream(ptr noundef %0, ptr noundef %1) #0 {
  %3 = alloca ptr, align 8
  %4 = alloca ptr, align 8
  %5 = alloca ptr, align 8
  %6 = alloca ptr, align 8
  %7 = alloca ptr, align 8
  %8 = alloca ptr, align 8
  %9 = alloca i64, align 8
  %10 = alloca i64, align 8
  %11 = alloca i32, align 4
  %12 = alloca [1024 x i8], align 16
  %13 = alloca i64, align 8
  %14 = alloca i64, align 8
  %15 = alloca ptr, align 8
  %16 = alloca ptr, align 8
  store ptr %0, ptr %3, align 8, !tbaa !51
  store ptr %1, ptr %4, align 8, !tbaa !13
  call void @llvm.lifetime.start.p0(i64 8, ptr %5) #16
  call void @llvm.lifetime.start.p0(i64 8, ptr %6) #16
  call void @llvm.lifetime.start.p0(i64 8, ptr %7) #16
  call void @llvm.lifetime.start.p0(i64 8, ptr %8) #16
  store ptr null, ptr %8, align 8, !tbaa !65
  call void @llvm.lifetime.start.p0(i64 8, ptr %9) #16
  store i64 -1, ptr %9, align 8, !tbaa !18
  call void @llvm.lifetime.start.p0(i64 8, ptr %10) #16
  store i64 0, ptr %10, align 8, !tbaa !18
  %17 = load ptr, ptr %3, align 8, !tbaa !51
  %18 = getelementptr inbounds nuw %struct._zend_execute_data, ptr %17, i32 0, i32 4
  %19 = getelementptr inbounds nuw %struct._zval_struct, ptr %18, i32 0, i32 2
  %20 = load i32, ptr %19, align 4, !tbaa !15
  %21 = load ptr, ptr @php_hashcontext_ce, align 8, !tbaa !99
  %22 = call i32 (i32, ptr, ...) @zend_parse_parameters(i32 noundef %20, ptr noundef @.str.7, ptr noundef %5, ptr noundef %21, ptr noundef %6, ptr noundef %9)
  %23 = icmp eq i32 %22, -1
  br i1 %23, label %24, label %30

24:                                               ; preds = %2
  br label %25

25:                                               ; preds = %24
  %26 = load ptr, ptr getelementptr inbounds nuw (%struct._zend_executor_globals, ptr @executor_globals, i32 0, i32 54), align 8, !tbaa !67
  %27 = icmp ne ptr %26, null
  call void @llvm.assume(i1 %27)
  store i32 1, ptr %11, align 4
  br label %120

28:                                               ; No predecessors!
  br label %29

29:                                               ; preds = %28
  br label %30

30:                                               ; preds = %29, %2
  %31 = load ptr, ptr %5, align 8, !tbaa !13
  %32 = getelementptr inbounds nuw %struct._zval_struct, ptr %31, i32 0, i32 0
  %33 = load ptr, ptr %32, align 8, !tbaa !15
  %34 = call ptr @php_hashcontext_from_object(ptr noundef %33)
  store ptr %34, ptr %7, align 8, !tbaa !24
  %35 = load ptr, ptr %7, align 8, !tbaa !24
  %36 = getelementptr inbounds nuw %struct._php_hashcontext_object, ptr %35, i32 0, i32 1
  %37 = load ptr, ptr %36, align 8, !tbaa !26
  %38 = icmp ne ptr %37, null
  br i1 %38, label %45, label %39

39:                                               ; preds = %30
  call void (i32, ptr, ...) @zend_argument_type_error(i32 noundef 1, ptr noundef @.str.6)
  br label %40

40:                                               ; preds = %39
  %41 = load ptr, ptr getelementptr inbounds nuw (%struct._zend_executor_globals, ptr @executor_globals, i32 0, i32 54), align 8, !tbaa !67
  %42 = icmp ne ptr %41, null
  call void @llvm.assume(i1 %42)
  store i32 1, ptr %11, align 4
  br label %120

43:                                               ; No predecessors!
  br label %44

44:                                               ; preds = %43
  br label %45

45:                                               ; preds = %44, %30
  br label %46

46:                                               ; preds = %45
  %47 = load ptr, ptr %6, align 8, !tbaa !13
  %48 = call i32 @php_file_le_stream()
  %49 = call i32 @php_file_le_pstream()
  %50 = call ptr @zend_fetch_resource2_ex(ptr noundef %47, ptr noundef @.str.8, i32 noundef %48, i32 noundef %49)
  store ptr %50, ptr %8, align 8, !tbaa !65
  %51 = icmp eq ptr %50, null
  br i1 %51, label %52, label %53

52:                                               ; preds = %46
  store i32 1, ptr %11, align 4
  br label %120

53:                                               ; preds = %46
  br label %54

54:                                               ; preds = %53
  br label %55

55:                                               ; preds = %54
  br label %56

56:                                               ; preds = %106, %55
  %57 = load i64, ptr %9, align 8, !tbaa !18
  %58 = icmp ne i64 %57, 0
  br i1 %58, label %59, label %107

59:                                               ; preds = %56
  call void @llvm.lifetime.start.p0(i64 1024, ptr %12) #16
  call void @llvm.lifetime.start.p0(i64 8, ptr %13) #16
  store i64 1024, ptr %13, align 8, !tbaa !18
  call void @llvm.lifetime.start.p0(i64 8, ptr %14) #16
  %60 = load i64, ptr %9, align 8, !tbaa !18
  %61 = icmp sgt i64 %60, 0
  br i1 %61, label %62, label %68

62:                                               ; preds = %59
  %63 = load i64, ptr %13, align 8, !tbaa !18
  %64 = load i64, ptr %9, align 8, !tbaa !18
  %65 = icmp sgt i64 %63, %64
  br i1 %65, label %66, label %68

66:                                               ; preds = %62
  %67 = load i64, ptr %9, align 8, !tbaa !18
  store i64 %67, ptr %13, align 8, !tbaa !18
  br label %68

68:                                               ; preds = %66, %62, %59
  %69 = load ptr, ptr %8, align 8, !tbaa !65
  %70 = getelementptr inbounds [1024 x i8], ptr %12, i64 0, i64 0
  %71 = load i64, ptr %13, align 8, !tbaa !18
  %72 = call i64 @_php_stream_read(ptr noundef %69, ptr noundef %70, i64 noundef %71)
  store i64 %72, ptr %14, align 8, !tbaa !18
  %73 = icmp sle i64 %72, 0
  br i1 %73, label %74, label %87

74:                                               ; preds = %68
  br label %75

75:                                               ; preds = %74
  br label %76

76:                                               ; preds = %75
  call void @llvm.lifetime.start.p0(i64 8, ptr %15) #16
  %77 = load ptr, ptr %4, align 8, !tbaa !13
  store ptr %77, ptr %15, align 8, !tbaa !13
  %78 = load i64, ptr %10, align 8, !tbaa !18
  %79 = load ptr, ptr %15, align 8, !tbaa !13
  %80 = getelementptr inbounds nuw %struct._zval_struct, ptr %79, i32 0, i32 0
  store i64 %78, ptr %80, align 8, !tbaa !15
  %81 = load ptr, ptr %15, align 8, !tbaa !13
  %82 = getelementptr inbounds nuw %struct._zval_struct, ptr %81, i32 0, i32 1
  store i32 4, ptr %82, align 8, !tbaa !15
  call void @llvm.lifetime.end.p0(i64 8, ptr %15) #16
  br label %83

83:                                               ; preds = %76
  br label %84

84:                                               ; preds = %83
  store i32 1, ptr %11, align 4
  br label %104

85:                                               ; No predecessors!
  br label %86

86:                                               ; preds = %85
  br label %87

87:                                               ; preds = %86, %68
  %88 = load ptr, ptr %7, align 8, !tbaa !24
  %89 = getelementptr inbounds nuw %struct._php_hashcontext_object, ptr %88, i32 0, i32 0
  %90 = load ptr, ptr %89, align 8, !tbaa !32
  %91 = getelementptr inbounds nuw %struct._php_hash_ops, ptr %90, i32 0, i32 2
  %92 = load ptr, ptr %91, align 8, !tbaa !95
  %93 = load ptr, ptr %7, align 8, !tbaa !24
  %94 = getelementptr inbounds nuw %struct._php_hashcontext_object, ptr %93, i32 0, i32 1
  %95 = load ptr, ptr %94, align 8, !tbaa !26
  %96 = getelementptr inbounds [1024 x i8], ptr %12, i64 0, i64 0
  %97 = load i64, ptr %14, align 8, !tbaa !18
  call void %92(ptr noundef %95, ptr noundef %96, i64 noundef %97)
  %98 = load i64, ptr %14, align 8, !tbaa !18
  %99 = load i64, ptr %9, align 8, !tbaa !18
  %100 = sub nsw i64 %99, %98
  store i64 %100, ptr %9, align 8, !tbaa !18
  %101 = load i64, ptr %14, align 8, !tbaa !18
  %102 = load i64, ptr %10, align 8, !tbaa !18
  %103 = add nsw i64 %102, %101
  store i64 %103, ptr %10, align 8, !tbaa !18
  store i32 0, ptr %11, align 4
  br label %104

104:                                              ; preds = %87, %84
  call void @llvm.lifetime.end.p0(i64 8, ptr %14) #16
  call void @llvm.lifetime.end.p0(i64 8, ptr %13) #16
  call void @llvm.lifetime.end.p0(i64 1024, ptr %12) #16
  %105 = load i32, ptr %11, align 4
  switch i32 %105, label %120 [
    i32 0, label %106
  ]

106:                                              ; preds = %104
  br label %56

107:                                              ; preds = %56
  br label %108

108:                                              ; preds = %107
  br label %109

109:                                              ; preds = %108
  call void @llvm.lifetime.start.p0(i64 8, ptr %16) #16
  %110 = load ptr, ptr %4, align 8, !tbaa !13
  store ptr %110, ptr %16, align 8, !tbaa !13
  %111 = load i64, ptr %10, align 8, !tbaa !18
  %112 = load ptr, ptr %16, align 8, !tbaa !13
  %113 = getelementptr inbounds nuw %struct._zval_struct, ptr %112, i32 0, i32 0
  store i64 %111, ptr %113, align 8, !tbaa !15
  %114 = load ptr, ptr %16, align 8, !tbaa !13
  %115 = getelementptr inbounds nuw %struct._zval_struct, ptr %114, i32 0, i32 1
  store i32 4, ptr %115, align 8, !tbaa !15
  call void @llvm.lifetime.end.p0(i64 8, ptr %16) #16
  br label %116

116:                                              ; preds = %109
  br label %117

117:                                              ; preds = %116
  store i32 1, ptr %11, align 4
  br label %120

118:                                              ; No predecessors!
  br label %119

119:                                              ; preds = %118
  store i32 0, ptr %11, align 4
  br label %120

120:                                              ; preds = %119, %117, %104, %52, %40, %25
  call void @llvm.lifetime.end.p0(i64 8, ptr %10) #16
  call void @llvm.lifetime.end.p0(i64 8, ptr %9) #16
  call void @llvm.lifetime.end.p0(i64 8, ptr %8) #16
  call void @llvm.lifetime.end.p0(i64 8, ptr %7) #16
  call void @llvm.lifetime.end.p0(i64 8, ptr %6) #16
  call void @llvm.lifetime.end.p0(i64 8, ptr %5) #16
  %121 = load i32, ptr %11, align 4
  switch i32 %121, label %123 [
    i32 0, label %122
    i32 1, label %122
  ]

122:                                              ; preds = %120, %120
  ret void

123:                                              ; preds = %120
  unreachable
}