; Function Attrs: nounwind uwtable
define hidden void @zif_hash_update_stream(ptr noundef readonly captures(none) %0, ptr noundef writeonly captures(none) %1) #0 {
  %3 = alloca ptr, align 8
  %4 = alloca ptr, align 8
  %5 = alloca i64, align 8
  %6 = alloca [1024 x i8], align 16
  call void @llvm.lifetime.start.p0(i64 8, ptr nonnull %3) #16
  call void @llvm.lifetime.start.p0(i64 8, ptr nonnull %4) #16
  call void @llvm.lifetime.start.p0(i64 8, ptr nonnull %5) #16
  store i64 -1, ptr %5, align 8, !tbaa !18
  %7 = getelementptr inbounds nuw i8, ptr %0, i64 44
  %8 = load i32, ptr %7, align 4, !tbaa !4
  %9 = load ptr, ptr @php_hashcontext_ce, align 8, !tbaa !85
  %10 = call i32 (i32, ptr, ...) @zend_parse_parameters(i32 noundef %8, ptr noundef nonnull @.str.7, ptr noundef nonnull %3, ptr noundef %9, ptr noundef nonnull %4, ptr noundef nonnull %5) #16
  %11 = icmp eq i32 %10, -1
  br i1 %11, label %12, label %15

12:                                               ; preds = %2
  %13 = load ptr, ptr getelementptr inbounds nuw (i8, ptr @executor_globals, i64 960), align 8, !tbaa !47
  %14 = icmp ne ptr %13, null
  call void @llvm.assume(i1 %14)
  br label %43

15:                                               ; preds = %2
  %16 = load ptr, ptr %3, align 8, !tbaa !88
  %17 = load ptr, ptr %16, align 8, !tbaa !4
  %18 = getelementptr inbounds i8, ptr %17, i64 -32
  %19 = getelementptr inbounds i8, ptr %17, i64 -24
  %20 = load ptr, ptr %19, align 8, !tbaa !19
  %.not = icmp eq ptr %20, null
  br i1 %.not, label %21, label %24

21:                                               ; preds = %15
  call void (i32, ptr, ...) @zend_argument_type_error(i32 noundef 1, ptr noundef nonnull @.str.6) #16
  %22 = load ptr, ptr getelementptr inbounds nuw (i8, ptr @executor_globals, i64 960), align 8, !tbaa !47
  %23 = icmp ne ptr %22, null
  call void @llvm.assume(i1 %23)
  br label %43

24:                                               ; preds = %15
  %25 = load ptr, ptr %4, align 8, !tbaa !88
  %26 = call i32 @php_file_le_stream() #16
  %27 = call i32 @php_file_le_pstream() #16
  %28 = call ptr @zend_fetch_resource2_ex(ptr noundef %25, ptr noundef nonnull @.str.8, i32 noundef %26, i32 noundef %27) #16
  %29 = icmp eq ptr %28, null
  br i1 %29, label %43, label %thread-pre-split

thread-pre-split:                                 ; preds = %24
  %.pr = load i64, ptr %5, align 8, !tbaa !18
  %.not2326 = icmp eq i64 %.pr, 0
  br i1 %.not2326, label %._crit_edge, label %.lr.ph

.lr.ph:                                           ; preds = %thread-pre-split, %34
  %.027 = phi i64 [ %41, %34 ], [ 0, %thread-pre-split ]
  %30 = phi i64 [ %40, %34 ], [ %.pr, %thread-pre-split ]
  call void @llvm.lifetime.start.p0(i64 1024, ptr nonnull %6) #16
  %.020 = call i64 @llvm.umin.i64(i64 %30, i64 1024)
  %31 = call i64 @_php_stream_read(ptr noundef nonnull %28, ptr noundef nonnull %6, i64 noundef %.020) #16
  %32 = icmp sgt i64 %31, 0
  br i1 %32, label %34, label %.thread

.thread:                                          ; preds = %.lr.ph
  store i64 %.027, ptr %1, align 8, !tbaa !4
  %33 = getelementptr inbounds nuw i8, ptr %1, i64 8
  store i32 4, ptr %33, align 8, !tbaa !4
  call void @llvm.lifetime.end.p0(i64 1024, ptr nonnull %6) #16
  br label %43

34:                                               ; preds = %.lr.ph
  %35 = load ptr, ptr %18, align 8, !tbaa !26
  %36 = getelementptr inbounds nuw i8, ptr %35, i64 16
  %37 = load ptr, ptr %36, align 8, !tbaa !80
  %38 = load ptr, ptr %19, align 8, !tbaa !19
  call void %37(ptr noundef %38, ptr noundef nonnull %6, i64 noundef %31) #16
  %39 = load i64, ptr %5, align 8, !tbaa !18
  %40 = sub nsw i64 %39, %31
  store i64 %40, ptr %5, align 8, !tbaa !18
  %41 = add nuw nsw i64 %31, %.027
  call void @llvm.lifetime.end.p0(i64 1024, ptr nonnull %6) #16
  %.not23 = icmp eq i64 %40, 0
  br i1 %.not23, label %._crit_edge, label %.lr.ph

._crit_edge:                                      ; preds = %34, %thread-pre-split
  %.0.lcssa = phi i64 [ 0, %thread-pre-split ], [ %41, %34 ]
  store i64 %.0.lcssa, ptr %1, align 8, !tbaa !4
  %42 = getelementptr inbounds nuw i8, ptr %1, i64 8
  store i32 4, ptr %42, align 8, !tbaa !4
  br label %43

43:                                               ; preds = %.thread, %24, %._crit_edge, %21, %12
  call void @llvm.lifetime.end.p0(i64 8, ptr nonnull %5) #16
  call void @llvm.lifetime.end.p0(i64 8, ptr nonnull %4) #16
  call void @llvm.lifetime.end.p0(i64 8, ptr nonnull %3) #16
  ret void
}